; Function Attrs: mustprogress nounwind uwtable
define void @_ZN3zmq17socks_connecter_t20set_auth_method_noneEv(ptr noundef nonnull align 8 dereferenceable(3032) %this) local_unnamed_addr #4 align 2 {
entry:
  %_auth_method = getelementptr inbounds i8, ptr %this, i64 2952
  store i32 0, ptr %_auth_method, align 8
  %_auth_username = getelementptr inbounds i8, ptr %this, i64 2960
  tail call void @_ZNSt7__cxx1112basic_stringIcSt11char_traitsIcESaIcEE5clearEv(ptr noundef nonnull align 8 dereferenceable(32) %_auth_username) #13
  %_auth_password = getelementptr inbounds i8, ptr %this, i64 2992
  tail call void @_ZNSt7__cxx1112basic_stringIcSt11char_traitsIcESaIcEE5clearEv(ptr noundef nonnull align 8 dereferenceable(32) %_auth_password) #13
  ret void
}